; Function Attrs: nounwind uwtable
define internal ptr @wrap_sq_item(ptr noundef %0, ptr noundef readonly captures(none) %1, ptr noundef readonly captures(none) %2) #1 {
  %4 = getelementptr i8, ptr %1, i64 16
  %.val = load i64, ptr %4, align 8, !tbaa !132
  %5 = icmp eq i64 %.val, 1
  br i1 %5, label %6, label %27

6:                                                ; preds = %3
  %7 = getelementptr inbounds nuw i8, ptr %1, i64 24
  %8 = load ptr, ptr %7, align 8, !tbaa !105
  %9 = load ptr, ptr @PyExc_OverflowError, align 8, !tbaa !105
  %10 = tail call i64 @PyNumber_AsSsize_t(ptr noundef %8, ptr noundef %9) #24
  %11 = icmp eq i64 %10, -1
  br i1 %11, label %12, label %14

12:                                               ; preds = %6
  %13 = tail call ptr @PyErr_Occurred() #24
  %.not.i = icmp eq ptr %13, null
  br i1 %.not.i, label %.thread.i, label %getindex.exit.thread

14:                                               ; preds = %6
  %15 = icmp slt i64 %10, 0
  br i1 %15, label %.thread.i, label %getindex.exit.thread15

.thread.i:                                        ; preds = %14, %12
  %16 = getelementptr i8, ptr %0, i64 8
  %.val.i = load ptr, ptr %16, align 8, !tbaa !116
  %17 = getelementptr inbounds nuw i8, ptr %.val.i, i64 104
  %18 = load ptr, ptr %17, align 8, !tbaa !262
  %.not25.i = icmp eq ptr %18, null
  br i1 %.not25.i, label %getindex.exit, label %19

19:                                               ; preds = %.thread.i
  %20 = load ptr, ptr %18, align 8, !tbaa !401
  %.not26.i = icmp eq ptr %20, null
  br i1 %.not26.i, label %getindex.exit, label %21

21:                                               ; preds = %19
  %22 = tail call i64 %20(ptr noundef nonnull %0) #24
  %.fr.i = freeze i64 %22
  %23 = icmp sgt i64 %.fr.i, -1
  %.217.i = add nsw i64 %.fr.i, %10
  br i1 %23, label %getindex.exit, label %getindex.exit.thread

getindex.exit:                                    ; preds = %21, %.thread.i, %19
  %.0.i = phi i64 [ %10, %19 ], [ %10, %.thread.i ], [ %.217.i, %21 ]
  %24 = icmp eq i64 %.0.i, -1
  br i1 %24, label %getindex.exit.thread, label %getindex.exit.thread15

getindex.exit.thread:                             ; preds = %21, %12, %getindex.exit
  %25 = tail call ptr @PyErr_Occurred() #24
  %.not = icmp eq ptr %25, null
  br i1 %.not, label %getindex.exit.thread15, label %check_num_args.exit

getindex.exit.thread15:                           ; preds = %14, %getindex.exit.thread, %getindex.exit
  %.0.i13 = phi i64 [ -1, %getindex.exit.thread ], [ %.0.i, %getindex.exit ], [ %10, %14 ]
  %26 = tail call ptr %2(ptr noundef %0, i64 noundef %.0.i13) #24
  br label %check_num_args.exit

27:                                               ; preds = %3
  %28 = getelementptr i8, ptr %1, i64 8
  %.val8.i = load ptr, ptr %28, align 8, !tbaa !116
  %.not.i10 = icmp eq ptr %.val8.i, @PyTuple_Type
  br i1 %.not.i10, label %31, label %29

29:                                               ; preds = %27
  %30 = load ptr, ptr @PyExc_SystemError, align 8, !tbaa !105
  tail call void @PyErr_SetString(ptr noundef %30, ptr noundef nonnull @.str.369) #24
  br label %check_num_args.exit

31:                                               ; preds = %27
  %32 = load ptr, ptr @PyExc_TypeError, align 8, !tbaa !105
  %33 = tail call ptr (ptr, ptr, ...) @PyErr_Format(ptr noundef %32, ptr noundef nonnull @.str.370, i32 noundef 1, ptr noundef nonnull @.str.119, i64 noundef %.val) #24
  br label %check_num_args.exit

check_num_args.exit:                              ; preds = %31, %29, %getindex.exit.thread, %getindex.exit.thread15
  %.0 = phi ptr [ %26, %getindex.exit.thread15 ], [ null, %getindex.exit.thread ], [ null, %29 ], [ null, %31 ]
  ret ptr %.0
}